Certificate:
    Data:
        Version: 3 (0x2)
        Serial Number:
            b0:2b:11:86:4a:4c:bd:af:9c:c4:5c:3c:3a:e9:40:db
    Signature Algorithm: sha256WithRSAEncryption
        Issuer: CN=ras
        Validity
            Not Before: Jun 28 02:08:38 2020 GMT
            Not After : Oct  1 02:08:38 2022 GMT
        Subject: CN=ras
        Subject Public Key Info:
            Public Key Algorithm: rsaEncryption
                Public-Key: (2048 bit)
                Modulus:
                    00:c2:53:ab:ee:c3:83:9d:98:dc:3a:b5:e1:94:fa:
                    e7:53:c0:22:95:b2:fb:38:6b:8b:0b:40:ad:88:8c:
                    46:d6:98:a8:58:80:1a:f6:11:3d:1b:98:a4:66:5d:
                    98:85:68:28:12:df:15:eb:81:46:6c:d9:68:f4:c8:
                    67:2f:9b:dc:cb:4c:54:00:a5:25:16:36:97:86:f3:
                    45:b8:c4:06:17:f9:fa:6e:fd:f2:ee:ec:b8:c8:f6:
                    f5:4d:22:60:2c:35:e3:e3:03:11:84:7c:3d:14:b0:
                    a9:6a:91:fb:3f:c0:ab:6e:ed:1d:2f:2e:70:7f:35:
                    e5:66:bb:4f:e6:11:8f:0d:44:df:30:75:4b:f2:bc:
                    be:a8:fd:83:40:82:1a:f5:72:93:53:70:ef:b2:2e:
                    18:5e:d4:dc:38:84:47:ee:4a:d8:96:ef:b1:d4:f6:
                    34:64:a5:13:b7:b1:92:13:57:2b:83:e4:3c:9a:cc:
                    79:96:a9:51:16:85:31:a3:f9:55:ab:47:52:ac:45:
                    50:00:4a:8f:00:57:25:55:5e:e0:ba:1f:e8:55:d2:
                    84:e9:f2:ff:6a:88:72:e3:51:87:b2:37:39:49:53:
                    7c:bb:5e:af:d0:47:91:c6:f7:2d:bf:b2:ea:18:6a:
                    76:91:b1:c6:cd:2f:21:dc:bf:dd:01:dc:fd:10:a8:
                    3e:b9
                Exponent: 65537 (0x10001)
        X509v3 extensions:
            X509v3 Basic Constraints: 
                CA:FALSE
            X509v3 Subject Key Identifier: 
                75:53:A7:58:74:0E:66:9F:F1:84:4C:88:EF:BC:77:27:26:C7:5A:F8
            X509v3 Authority Key Identifier: 
                keyid:83:8D:68:3E:F2:00:0B:A5:4D:13:AD:DD:9A:EC:69:8C:B1:83:7E:41
                DirName:/CN=ras
                serial:D0:A5:3B:D7:D5:6B:66:03

            X509v3 Extended Key Usage: 
                TLS Web Server Authentication
            X509v3 Key Usage: 
                Digital Signature, Key Encipherment
            X509v3 Subject Alternative Name: 
                DNS:ras
    Signature Algorithm: sha256WithRSAEncryption
         5b:dd:99:2a:58:80:56:95:ed:6a:35:b5:51:44:b5:ee:85:99:
         0b:50:82:a9:63:89:29:a5:22:a0:a6:69:ff:a4:e2:33:4e:94:
         bf:36:07:f3:b3:c6:5c:02:d2:91:5b:fd:08:7e:a0:9e:41:81:
         03:24:90:df:45:8a:92:6c:dd:3b:c9:1d:31:cc:ed:03:dc:67:
         a3:6b:45:84:68:e0:f9:49:f2:97:1c:5d:ba:a0:08:f9:34:65:
         14:ee:be:70:9a:d6:c1:7b:8a:fb:38:24:cb:4b:cb:f8:1b:78:
         39:1b:19:69:08:b9:89:f9:cc:8c:53:e1:04:6c:6f:6f:c7:b8:
         eb:ce:c3:1c:57:9d:03:0f:e0:a2:a6:38:a9:3c:71:55:ce:e0:
         51:5b:3c:9b:db:5f:c8:9f:5d:f5:13:de:47:7e:47:c6:65:b2:
         30:4e:d8:7d:ca:58:9e:4e:0c:58:84:09:35:ed:a0:fc:c7:0f:
         8b:f3:ac:7a:c9:c5:b3:3c:f4:7a:d0:dd:df:c4:5c:13:e7:1e:
         2e:80:89:db:e1:2a:52:d7:35:ec:4d:fb:25:e8:3f:bf:42:06:
         35:64:40:66:bb:94:13:6b:01:34:8a:f4:20:12:07:f8:c3:e8:
         e2:dd:f4:9f:30:6f:e7:b5:77:6f:1d:e8:91:d3:75:eb:d4:97:
         97:27:77:bc
-----BEGIN CERTIFICATE-----
MIIDRzCCAi+gAwIBAgIRALArEYZKTL2vnMRcPDrpQNswDQYJKoZIhvcNAQELBQAw
DjEMMAoGA1UEAwwDcmFzMB4XDTIwMDYyODAyMDgzOFoXDTIyMTAwMTAyMDgzOFow
DjEMMAoGA1UEAwwDcmFzMIIBIjANBgkqhkiG9w0BAQEFAAOCAQ8AMIIBCgKCAQEA
wlOr7sODnZjcOrXhlPrnU8AilbL7OGuLC0CtiIxG1pioWIAa9hE9G5ikZl2YhWgo
Et8V64FGbNlo9MhnL5vcy0xUAKUlFjaXhvNFuMQGF/n6bv3y7uy4yPb1TSJgLDXj
4wMRhHw9FLCpapH7P8Crbu0dLy5wfzXlZrtP5hGPDUTfMHVL8ry+qP2DQIIa9XKT
U3Dvsi4YXtTcOIRH7krYlu+x1PY0ZKUTt7GSE1crg+Q8msx5lqlRFoUxo/lVq0dS
rEVQAEqPAFclVV7guh/oVdKE6fL/aohy41GHsjc5SVN8u16v0EeRxvctv7LqGGp2
kbHGzS8h3L/dAdz9EKg+uQIDAQABo4GfMIGcMAkGA1UdEwQCMAAwHQYDVR0OBBYE
FHVTp1h0Dmaf8YRMiO+8dycmx1r4MD4GA1UdIwQ3MDWAFIONaD7yAAulTROt3Zrs
aYyxg35BoRKkEDAOMQwwCgYDVQQDDANyYXOCCQDQpTvX1WtmAzATBgNVHSUEDDAK
BggrBgEFBQcDATALBgNVHQ8EBAMCBaAwDgYDVR0RBAcwBYIDcmFzMA0GCSqGSIb3
DQEBCwUAA4IBAQBb3ZkqWIBWle1qNbVRRLXuhZkLUIKpY4kppSKgpmn/pOIzTpS/
Ngfzs8ZcAtKRW/0IfqCeQYEDJJDfRYqSbN07yR0xzO0D3Geja0WEaOD5SfKXHF26
oAj5NGUU7r5wmtbBe4r7OCTLS8v4G3g5GxlpCLmJ+cyMU+EEbG9vx7jrzsMcV50D
D+CipjipPHFVzuBRWzyb21/In131E95HfkfGZbIwTth9ylieTgxYhAk17aD8xw+L
86x6ycWzPPR60N3fxFwT5x4ugInb4SpS1zXsTfsl6D+/QgY1ZEBmu5QTawE0ivQg
Egf4w+ji3fSfMG/ntXdvHeiR03Xr1JeXJ3e8
-----END CERTIFICATE-----
